; Function Attrs: nofree norecurse nosync nounwind memory(readwrite, inaccessiblemem: none) uwtable
define hidden void @AnyByteDrawGlyphListXor(ptr nocapture noundef readonly %0, ptr nocapture noundef readonly %1, i32 noundef %2, i32 noundef %3, i32 %4, i32 noundef %5, i32 noundef %6, i32 noundef %7, i32 noundef %8, ptr nocapture readnone %9, ptr nocapture noundef readonly %10) #2 {
  %12 = icmp sgt i32 %2, 0
  br i1 %12, label %.lr.ph, label %._crit_edge

.lr.ph:                                           ; preds = %11
  %13 = getelementptr inbounds i8, ptr %10, i64 8
  %14 = load i32, ptr %13, align 4
  %15 = getelementptr inbounds i8, ptr %10, i64 4
  %16 = load i32, ptr %15, align 4
  %17 = getelementptr inbounds i8, ptr %0, i64 32
  %18 = load i32, ptr %17, align 8
  %19 = getelementptr inbounds i8, ptr %0, i64 16
  %20 = sext i32 %18 to i64
  %21 = xor i32 %16, %3
  %22 = xor i32 %14, -1
  %23 = and i32 %21, %22
  %24 = trunc i32 %23 to i8
  %wide.trip.count97 = zext nneg i32 %2 to i64
  br label %25

25:                                               ; preds = %.lr.ph, %.loopexit
  %indvars.iv94 = phi i64 [ 0, %.lr.ph ], [ %indvars.iv.next95, %.loopexit ]
  %26 = getelementptr inbounds %struct.ImageRef, ptr %1, i64 %indvars.iv94
  %27 = getelementptr inbounds i8, ptr %26, i64 8
  %28 = load ptr, ptr %27, align 8
  %.not = icmp eq ptr %28, null
  br i1 %.not, label %.loopexit, label %29

29:                                               ; preds = %25
  %30 = getelementptr inbounds i8, ptr %26, i64 32
  %31 = load i32, ptr %30, align 8
  %32 = getelementptr inbounds i8, ptr %26, i64 36
  %33 = load i32, ptr %32, align 4
  %34 = getelementptr inbounds i8, ptr %26, i64 24
  %35 = load i32, ptr %34, align 8
  %36 = getelementptr inbounds i8, ptr %26, i64 28
  %37 = load i32, ptr %36, align 4
  %38 = add nsw i32 %35, %31
  %39 = add nsw i32 %37, %33
  %.071 = tail call i32 @llvm.smax.i32(i32 %31, i32 %5)
  %.070 = tail call i32 @llvm.smax.i32(i32 %33, i32 %6)
  %.068 = tail call i32 @llvm.smin.i32(i32 %38, i32 %7)
  %.067 = tail call i32 @llvm.smin.i32(i32 %39, i32 %8)
  %.not88 = icmp sgt i32 %.068, %.071
  %.not89 = icmp sgt i32 %.067, %.070
  %or.cond = select i1 %.not88, i1 %.not89, i1 false
  br i1 %or.cond, label %40, label %.loopexit

40:                                               ; preds = %29
  %41 = getelementptr inbounds i8, ptr %26, i64 16
  %42 = load i32, ptr %41, align 8
  %43 = icmp slt i32 %33, %6
  %44 = icmp slt i32 %31, %5
  %45 = sub nsw i32 %5, %31
  %narrow = select i1 %44, i32 %45, i32 0
  %.073.idx = sext i32 %narrow to i64
  %.073 = getelementptr inbounds i8, ptr %28, i64 %.073.idx
  %46 = sub nsw i32 %6, %33
  %47 = mul nsw i32 %46, %42
  %narrow91 = select i1 %43, i32 %47, i32 0
  %.1.idx = sext i32 %narrow91 to i64
  %.1 = getelementptr inbounds i8, ptr %.073, i64 %.1.idx
  %48 = sub i32 %.068, %.071
  %49 = sub nsw i32 %.067, %.070
  %50 = load ptr, ptr %19, align 8
  %51 = ptrtoint ptr %50 to i64
  %52 = sext i32 %.070 to i64
  %53 = mul nsw i64 %52, %20
  %54 = sext i32 %.071 to i64
  %55 = add nsw i64 %53, %54
  %56 = add nsw i64 %55, %51
  %57 = sext i32 %42 to i64
  %smax = tail call i32 @llvm.smax.i32(i32 %48, i32 1)
  %wide.trip.count = zext nneg i32 %smax to i64
  br label %58

58:                                               ; preds = %67, %40
  %.074.in = phi i64 [ %56, %40 ], [ %68, %67 ]
  %.2 = phi ptr [ %.1, %40 ], [ %69, %67 ]
  %.069 = phi i32 [ %49, %40 ], [ %70, %67 ]
  %.074 = inttoptr i64 %.074.in to ptr
  br label %59

59:                                               ; preds = %66, %58
  %indvars.iv = phi i64 [ %indvars.iv.next, %66 ], [ 0, %58 ]
  %60 = getelementptr inbounds i8, ptr %.2, i64 %indvars.iv
  %61 = load i8, ptr %60, align 1
  %.not90 = icmp eq i8 %61, 0
  br i1 %.not90, label %66, label %62

62:                                               ; preds = %59
  %63 = getelementptr inbounds i8, ptr %.074, i64 %indvars.iv
  %64 = load i8, ptr %63, align 1
  %65 = xor i8 %64, %24
  store i8 %65, ptr %63, align 1
  br label %66

66:                                               ; preds = %59, %62
  %indvars.iv.next = add nuw nsw i64 %indvars.iv, 1
  %exitcond.not = icmp eq i64 %indvars.iv.next, %wide.trip.count
  br i1 %exitcond.not, label %67, label %59, !llvm.loop !23

67:                                               ; preds = %66
  %68 = add nsw i64 %.074.in, %20
  %69 = getelementptr inbounds i8, ptr %.2, i64 %57
  %70 = add nsw i32 %.069, -1
  %71 = icmp sgt i32 %.069, 1
  br i1 %71, label %58, label %.loopexit, !llvm.loop !24

.loopexit:                                        ; preds = %67, %29, %25
  %indvars.iv.next95 = add nuw nsw i64 %indvars.iv94, 1
  %exitcond98.not = icmp eq i64 %indvars.iv.next95, %wide.trip.count97
  br i1 %exitcond98.not, label %._crit_edge, label %25, !llvm.loop !25

._crit_edge:                                      ; preds = %.loopexit, %11
  ret void
}